target datalayout = "e-m:e-p270:32:32-p271:32:32-p272:64:64-i64:64-i128:128-f80:128-n8:16:32:64-S128"
target triple = "x86_64-pc-linux-gnu"

%struct.LVRelState = type { ptr, ptr, i32, ptr, ptr, i8, i8, i8, i8, i8, i8, %struct.VacuumCutoffs, ptr, i32, i32, i8, ptr, ptr, ptr, ptr, i32, i16, i32, i8, ptr, ptr, i32, i32, i32, i32, i32, i32, i32, i32, i32, i32, i32, double, double, ptr, i32, i64, i64, i64, i64, i64, i64, i32, i32, i8, i8, i32, i32, i32, i32, i32 }
%struct.VacuumCutoffs = type { i32, i32, i32, i32, i32, i32 }

@.str.42 = private unnamed_addr constant [54 x i8] c"while scanning block %u offset %u of relation \22%s.%s\22\00", align 1
@.str.43 = private unnamed_addr constant [44 x i8] c"while scanning block %u of relation \22%s.%s\22\00", align 1
@.str.44 = private unnamed_addr constant [32 x i8] c"while scanning relation \22%s.%s\22\00", align 1
@.str.45 = private unnamed_addr constant [55 x i8] c"while vacuuming block %u offset %u of relation \22%s.%s\22\00", align 1
@.str.46 = private unnamed_addr constant [45 x i8] c"while vacuuming block %u of relation \22%s.%s\22\00", align 1
@.str.47 = private unnamed_addr constant [33 x i8] c"while vacuuming relation \22%s.%s\22\00", align 1
@.str.48 = private unnamed_addr constant [47 x i8] c"while vacuuming index \22%s\22 of relation \22%s.%s\22\00", align 1
@.str.49 = private unnamed_addr constant [49 x i8] c"while cleaning up index \22%s\22 of relation \22%s.%s\22\00", align 1
@.str.50 = private unnamed_addr constant [47 x i8] c"while truncating relation \22%s.%s\22 to %u blocks\00", align 1

; Function Attrs: inlinehint nounwind uwtable
define internal zeroext i1 @BlockNumberIsValid(i32 noundef %0) #6 {
  %2 = alloca i32, align 4
  store i32 %0, ptr %2, align 4
  %3 = load i32, ptr %2, align 4
  %4 = icmp ne i32 %3, -1
  ret i1 %4
}

; Function Attrs: nounwind uwtable
define internal void @vacuum_error_callback(ptr noundef %0) #0 {
  %2 = alloca ptr, align 8
  %3 = alloca ptr, align 8
  %4 = alloca i32, align 4
  store ptr %0, ptr %2, align 8
  call void @llvm.lifetime.start.p0(i64 8, ptr %3) #10
  %5 = load ptr, ptr %2, align 8
  store ptr %5, ptr %3, align 8
  %6 = load ptr, ptr %3, align 8
  %7 = getelementptr inbounds nuw %struct.LVRelState, ptr %6, i32 0, i32 22
  %8 = load i32, ptr %7, align 8
  switch i32 %8, label %168 [
    i32 1, label %9
    i32 3, label %67
    i32 2, label %125
    i32 4, label %137
    i32 5, label %149
    i32 0, label %167
  ]

9:                                                ; preds = %1
  %10 = load ptr, ptr %3, align 8
  %11 = getelementptr inbounds nuw %struct.LVRelState, ptr %10, i32 0, i32 20
  %12 = load i32, ptr %11, align 8
  %13 = call zeroext i1 @BlockNumberIsValid(i32 noundef %12)
  br i1 %13, label %14, label %57

14:                                               ; preds = %9
  %15 = load ptr, ptr %3, align 8
  %16 = getelementptr inbounds nuw %struct.LVRelState, ptr %15, i32 0, i32 21
  %17 = load i16, ptr %16, align 4
  %18 = zext i16 %17 to i32
  %19 = icmp ne i32 %18, 0
  br i1 %19, label %20, label %26

20:                                               ; preds = %14
  %21 = load ptr, ptr %3, align 8
  %22 = getelementptr inbounds nuw %struct.LVRelState, ptr %21, i32 0, i32 21
  %23 = load i16, ptr %22, align 4
  %24 = zext i16 %23 to i32
  %25 = icmp sle i32 %24, 2048
  br label %26

26:                                               ; preds = %20, %14
  %27 = phi i1 [ false, %14 ], [ %25, %20 ]
  br i1 %27, label %28, label %44

28:                                               ; preds = %26
  %29 = call i32 @set_errcontext_domain(ptr noundef null)
  %30 = load ptr, ptr %3, align 8
  %31 = getelementptr inbounds nuw %struct.LVRelState, ptr %30, i32 0, i32 20
  %32 = load i32, ptr %31, align 8
  %33 = load ptr, ptr %3, align 8
  %34 = getelementptr inbounds nuw %struct.LVRelState, ptr %33, i32 0, i32 21
  %35 = load i16, ptr %34, align 4
  %36 = zext i16 %35 to i32
  %37 = load ptr, ptr %3, align 8
  %38 = getelementptr inbounds nuw %struct.LVRelState, ptr %37, i32 0, i32 17
  %39 = load ptr, ptr %38, align 8
  %40 = load ptr, ptr %3, align 8
  %41 = getelementptr inbounds nuw %struct.LVRelState, ptr %40, i32 0, i32 18
  %42 = load ptr, ptr %41, align 8
  %43 = call i32 (ptr, ...) @errcontext_msg(ptr noundef @.str.42, i32 noundef %32, i32 noundef %36, ptr noundef %39, ptr noundef %42)
  br label %56

44:                                               ; preds = %26
  %45 = call i32 @set_errcontext_domain(ptr noundef null)
  %46 = load ptr, ptr %3, align 8
  %47 = getelementptr inbounds nuw %struct.LVRelState, ptr %46, i32 0, i32 20
  %48 = load i32, ptr %47, align 8
  %49 = load ptr, ptr %3, align 8
  %50 = getelementptr inbounds nuw %struct.LVRelState, ptr %49, i32 0, i32 17
  %51 = load ptr, ptr %50, align 8
  %52 = load ptr, ptr %3, align 8
  %53 = getelementptr inbounds nuw %struct.LVRelState, ptr %52, i32 0, i32 18
  %54 = load ptr, ptr %53, align 8
  %55 = call i32 (ptr, ...) @errcontext_msg(ptr noundef @.str.43, i32 noundef %48, ptr noundef %51, ptr noundef %54)
  br label %56

56:                                               ; preds = %44, %28
  br label %66

57:                                               ; preds = %9
  %58 = call i32 @set_errcontext_domain(ptr noundef null)
  %59 = load ptr, ptr %3, align 8
  %60 = getelementptr inbounds nuw %struct.LVRelState, ptr %59, i32 0, i32 17
  %61 = load ptr, ptr %60, align 8
  %62 = load ptr, ptr %3, align 8
  %63 = getelementptr inbounds nuw %struct.LVRelState, ptr %62, i32 0, i32 18
  %64 = load ptr, ptr %63, align 8
  %65 = call i32 (ptr, ...) @errcontext_msg(ptr noundef @.str.44, ptr noundef %61, ptr noundef %64)
  br label %66

66:                                               ; preds = %57, %56
  br label %169

67:                                               ; preds = %1
  %68 = load ptr, ptr %3, align 8
  %69 = getelementptr inbounds nuw %struct.LVRelState, ptr %68, i32 0, i32 20
  %70 = load i32, ptr %69, align 8
  %71 = call zeroext i1 @BlockNumberIsValid(i32 noundef %70)
  br i1 %71, label %72, label %115

72:                                               ; preds = %67
  %73 = load ptr, ptr %3, align 8
  %74 = getelementptr inbounds nuw %struct.LVRelState, ptr %73, i32 0, i32 21
  %75 = load i16, ptr %74, align 4
  %76 = zext i16 %75 to i32
  %77 = icmp ne i32 %76, 0
  br i1 %77, label %78, label %84

78:                                               ; preds = %72
  %79 = load ptr, ptr %3, align 8
  %80 = getelementptr inbounds nuw %struct.LVRelState, ptr %79, i32 0, i32 21
  %81 = load i16, ptr %80, align 4
  %82 = zext i16 %81 to i32
  %83 = icmp sle i32 %82, 2048
  br label %84

84:                                               ; preds = %78, %72
  %85 = phi i1 [ false, %72 ], [ %83, %78 ]
  br i1 %85, label %86, label %102

86:                                               ; preds = %84
  %87 = call i32 @set_errcontext_domain(ptr noundef null)
  %88 = load ptr, ptr %3, align 8
  %89 = getelementptr inbounds nuw %struct.LVRelState, ptr %88, i32 0, i32 20
  %90 = load i32, ptr %89, align 8
  %91 = load ptr, ptr %3, align 8
  %92 = getelementptr inbounds nuw %struct.LVRelState, ptr %91, i32 0, i32 21
  %93 = load i16, ptr %92, align 4
  %94 = zext i16 %93 to i32
  %95 = load ptr, ptr %3, align 8
  %96 = getelementptr inbounds nuw %struct.LVRelState, ptr %95, i32 0, i32 17
  %97 = load ptr, ptr %96, align 8
  %98 = load ptr, ptr %3, align 8
  %99 = getelementptr inbounds nuw %struct.LVRelState, ptr %98, i32 0, i32 18
  %100 = load ptr, ptr %99, align 8
  %101 = call i32 (ptr, ...) @errcontext_msg(ptr noundef @.str.45, i32 noundef %90, i32 noundef %94, ptr noundef %97, ptr noundef %100)
  br label %114

102:                                              ; preds = %84
  %103 = call i32 @set_errcontext_domain(ptr noundef null)
  %104 = load ptr, ptr %3, align 8
  %105 = getelementptr inbounds nuw %struct.LVRelState, ptr %104, i32 0, i32 20
  %106 = load i32, ptr %105, align 8
  %107 = load ptr, ptr %3, align 8
  %108 = getelementptr inbounds nuw %struct.LVRelState, ptr %107, i32 0, i32 17
  %109 = load ptr, ptr %108, align 8
  %110 = load ptr, ptr %3, align 8
  %111 = getelementptr inbounds nuw %struct.LVRelState, ptr %110, i32 0, i32 18
  %112 = load ptr, ptr %111, align 8
  %113 = call i32 (ptr, ...) @errcontext_msg(ptr noundef @.str.46, i32 noundef %106, ptr noundef %109, ptr noundef %112)
  br label %114

114:                                              ; preds = %102, %86
  br label %124

115:                                              ; preds = %67
  %116 = call i32 @set_errcontext_domain(ptr noundef null)
  %117 = load ptr, ptr %3, align 8
  %118 = getelementptr inbounds nuw %struct.LVRelState, ptr %117, i32 0, i32 17
  %119 = load ptr, ptr %118, align 8
  %120 = load ptr, ptr %3, align 8
  %121 = getelementptr inbounds nuw %struct.LVRelState, ptr %120, i32 0, i32 18
  %122 = load ptr, ptr %121, align 8
  %123 = call i32 (ptr, ...) @errcontext_msg(ptr noundef @.str.47, ptr noundef %119, ptr noundef %122)
  br label %124

124:                                              ; preds = %115, %114
  br label %169

125:                                              ; preds = %1
  %126 = call i32 @set_errcontext_domain(ptr noundef null)
  %127 = load ptr, ptr %3, align 8
  %128 = getelementptr inbounds nuw %struct.LVRelState, ptr %127, i32 0, i32 19
  %129 = load ptr, ptr %128, align 8
  %130 = load ptr, ptr %3, align 8
  %131 = getelementptr inbounds nuw %struct.LVRelState, ptr %130, i32 0, i32 17
  %132 = load ptr, ptr %131, align 8
  %133 = load ptr, ptr %3, align 8
  %134 = getelementptr inbounds nuw %struct.LVRelState, ptr %133, i32 0, i32 18
  %135 = load ptr, ptr %134, align 8
  %136 = call i32 (ptr, ...) @errcontext_msg(ptr noundef @.str.48, ptr noundef %129, ptr noundef %132, ptr noundef %135)
  br label %169

137:                                              ; preds = %1
  %138 = call i32 @set_errcontext_domain(ptr noundef null)
  %139 = load ptr, ptr %3, align 8
  %140 = getelementptr inbounds nuw %struct.LVRelState, ptr %139, i32 0, i32 19
  %141 = load ptr, ptr %140, align 8
  %142 = load ptr, ptr %3, align 8
  %143 = getelementptr inbounds nuw %struct.LVRelState, ptr %142, i32 0, i32 17
  %144 = load ptr, ptr %143, align 8
  %145 = load ptr, ptr %3, align 8
  %146 = getelementptr inbounds nuw %struct.LVRelState, ptr %145, i32 0, i32 18
  %147 = load ptr, ptr %146, align 8
  %148 = call i32 (ptr, ...) @errcontext_msg(ptr noundef @.str.49, ptr noundef %141, ptr noundef %144, ptr noundef %147)
  br label %169

149:                                              ; preds = %1
  %150 = load ptr, ptr %3, align 8
  %151 = getelementptr inbounds nuw %struct.LVRelState, ptr %150, i32 0, i32 20
  %152 = load i32, ptr %151, align 8
  %153 = call zeroext i1 @BlockNumberIsValid(i32 noundef %152)
  br i1 %153, label %154, label %166

154:                                              ; preds = %149
  %155 = call i32 @set_errcontext_domain(ptr noundef null)
  %156 = load ptr, ptr %3, align 8
  %157 = getelementptr inbounds nuw %struct.LVRelState, ptr %156, i32 0, i32 17
  %158 = load ptr, ptr %157, align 8
  %159 = load ptr, ptr %3, align 8
  %160 = getelementptr inbounds nuw %struct.LVRelState, ptr %159, i32 0, i32 18
  %161 = load ptr, ptr %160, align 8
  %162 = load ptr, ptr %3, align 8
  %163 = getelementptr inbounds nuw %struct.LVRelState, ptr %162, i32 0, i32 20
  %164 = load i32, ptr %163, align 8
  %165 = call i32 (ptr, ...) @errcontext_msg(ptr noundef @.str.50, ptr noundef %158, ptr noundef %161, i32 noundef %164)
  br label %166

166:                                              ; preds = %154, %149
  br label %169

167:                                              ; preds = %1
  br label %168

168:                                              ; preds = %1, %167
  store i32 1, ptr %4, align 4
  br label %170

169:                                              ; preds = %166, %137, %125, %124, %66
  store i32 0, ptr %4, align 4
  br label %170

170:                                              ; preds = %169, %168
  call void @llvm.lifetime.end.p0(i64 8, ptr %3) #10
  %171 = load i32, ptr %4, align 4
  switch i32 %171, label %173 [
    i32 0, label %172
    i32 1, label %172
  ]

172:                                              ; preds = %170, %170
  ret void

173:                                              ; preds = %170
  unreachable
}