; Function Attrs: nounwind uwtable
define internal void @vacuum_error_callback(ptr noundef readonly captures(none) %0) #0 {
  %2 = getelementptr inbounds nuw i8, ptr %0, i64 136
  %3 = load i32, ptr %2, align 8
  switch i32 %3, label %91 [
    i32 1, label %4
    i32 3, label %33
    i32 2, label %62
    i32 4, label %71
    i32 5, label %80
  ]

4:                                                ; preds = %1
  %5 = getelementptr inbounds nuw i8, ptr %0, i64 128
  %6 = load i32, ptr %5, align 8
  %.not = icmp eq i32 %6, -1
  br i1 %.not, label %26, label %7

7:                                                ; preds = %4
  %8 = getelementptr inbounds nuw i8, ptr %0, i64 132
  %9 = load i16, ptr %8, align 4
  %10 = add i16 %9, -1
  %or.cond = icmp ult i16 %10, 2048
  %11 = tail call i32 @set_errcontext_domain(ptr noundef null) #10
  %12 = load i32, ptr %5, align 8
  br i1 %or.cond, label %13, label %.critedge

13:                                               ; preds = %7
  %14 = load i16, ptr %8, align 4
  %15 = zext i16 %14 to i32
  %16 = getelementptr inbounds nuw i8, ptr %0, i64 104
  %17 = load ptr, ptr %16, align 8
  %18 = getelementptr inbounds nuw i8, ptr %0, i64 112
  %19 = load ptr, ptr %18, align 8
  %20 = tail call i32 (ptr, ...) @errcontext_msg(ptr noundef nonnull @.str.42, i32 noundef %12, i32 noundef %15, ptr noundef %17, ptr noundef %19) #10
  br label %91

.critedge:                                        ; preds = %7
  %21 = getelementptr inbounds nuw i8, ptr %0, i64 104
  %22 = load ptr, ptr %21, align 8
  %23 = getelementptr inbounds nuw i8, ptr %0, i64 112
  %24 = load ptr, ptr %23, align 8
  %25 = tail call i32 (ptr, ...) @errcontext_msg(ptr noundef nonnull @.str.43, i32 noundef %12, ptr noundef %22, ptr noundef %24) #10
  br label %91

26:                                               ; preds = %4
  %27 = tail call i32 @set_errcontext_domain(ptr noundef null) #10
  %28 = getelementptr inbounds nuw i8, ptr %0, i64 104
  %29 = load ptr, ptr %28, align 8
  %30 = getelementptr inbounds nuw i8, ptr %0, i64 112
  %31 = load ptr, ptr %30, align 8
  %32 = tail call i32 (ptr, ...) @errcontext_msg(ptr noundef nonnull @.str.44, ptr noundef %29, ptr noundef %31) #10
  br label %91

33:                                               ; preds = %1
  %34 = getelementptr inbounds nuw i8, ptr %0, i64 128
  %35 = load i32, ptr %34, align 8
  %.not42 = icmp eq i32 %35, -1
  br i1 %.not42, label %55, label %36

36:                                               ; preds = %33
  %37 = getelementptr inbounds nuw i8, ptr %0, i64 132
  %38 = load i16, ptr %37, align 4
  %39 = add i16 %38, -1
  %or.cond40 = icmp ult i16 %39, 2048
  %40 = tail call i32 @set_errcontext_domain(ptr noundef null) #10
  %41 = load i32, ptr %34, align 8
  br i1 %or.cond40, label %42, label %.critedge2

42:                                               ; preds = %36
  %43 = load i16, ptr %37, align 4
  %44 = zext i16 %43 to i32
  %45 = getelementptr inbounds nuw i8, ptr %0, i64 104
  %46 = load ptr, ptr %45, align 8
  %47 = getelementptr inbounds nuw i8, ptr %0, i64 112
  %48 = load ptr, ptr %47, align 8
  %49 = tail call i32 (ptr, ...) @errcontext_msg(ptr noundef nonnull @.str.45, i32 noundef %41, i32 noundef %44, ptr noundef %46, ptr noundef %48) #10
  br label %91

.critedge2:                                       ; preds = %36
  %50 = getelementptr inbounds nuw i8, ptr %0, i64 104
  %51 = load ptr, ptr %50, align 8
  %52 = getelementptr inbounds nuw i8, ptr %0, i64 112
  %53 = load ptr, ptr %52, align 8
  %54 = tail call i32 (ptr, ...) @errcontext_msg(ptr noundef nonnull @.str.46, i32 noundef %41, ptr noundef %51, ptr noundef %53) #10
  br label %91

55:                                               ; preds = %33
  %56 = tail call i32 @set_errcontext_domain(ptr noundef null) #10
  %57 = getelementptr inbounds nuw i8, ptr %0, i64 104
  %58 = load ptr, ptr %57, align 8
  %59 = getelementptr inbounds nuw i8, ptr %0, i64 112
  %60 = load ptr, ptr %59, align 8
  %61 = tail call i32 (ptr, ...) @errcontext_msg(ptr noundef nonnull @.str.47, ptr noundef %58, ptr noundef %60) #10
  br label %91

62:                                               ; preds = %1
  %63 = tail call i32 @set_errcontext_domain(ptr noundef null) #10
  %64 = getelementptr inbounds nuw i8, ptr %0, i64 120
  %65 = load ptr, ptr %64, align 8
  %66 = getelementptr inbounds nuw i8, ptr %0, i64 104
  %67 = load ptr, ptr %66, align 8
  %68 = getelementptr inbounds nuw i8, ptr %0, i64 112
  %69 = load ptr, ptr %68, align 8
  %70 = tail call i32 (ptr, ...) @errcontext_msg(ptr noundef nonnull @.str.48, ptr noundef %65, ptr noundef %67, ptr noundef %69) #10
  br label %91

71:                                               ; preds = %1
  %72 = tail call i32 @set_errcontext_domain(ptr noundef null) #10
  %73 = getelementptr inbounds nuw i8, ptr %0, i64 120
  %74 = load ptr, ptr %73, align 8
  %75 = getelementptr inbounds nuw i8, ptr %0, i64 104
  %76 = load ptr, ptr %75, align 8
  %77 = getelementptr inbounds nuw i8, ptr %0, i64 112
  %78 = load ptr, ptr %77, align 8
  %79 = tail call i32 (ptr, ...) @errcontext_msg(ptr noundef nonnull @.str.49, ptr noundef %74, ptr noundef %76, ptr noundef %78) #10
  br label %91

80:                                               ; preds = %1
  %81 = getelementptr inbounds nuw i8, ptr %0, i64 128
  %82 = load i32, ptr %81, align 8
  %.not41 = icmp eq i32 %82, -1
  br i1 %.not41, label %91, label %83

83:                                               ; preds = %80
  %84 = tail call i32 @set_errcontext_domain(ptr noundef null) #10
  %85 = getelementptr inbounds nuw i8, ptr %0, i64 104
  %86 = load ptr, ptr %85, align 8
  %87 = getelementptr inbounds nuw i8, ptr %0, i64 112
  %88 = load ptr, ptr %87, align 8
  %89 = load i32, ptr %81, align 8
  %90 = tail call i32 (ptr, ...) @errcontext_msg(ptr noundef nonnull @.str.50, ptr noundef %86, ptr noundef %88, i32 noundef %89) #10
  br label %91

91:                                               ; preds = %62, %71, %13, %.critedge, %26, %42, %.critedge2, %55, %83, %80, %1
  ret void
}